target datalayout = "e-m:e-p270:32:32-p271:32:32-p272:64:64-i64:64-i128:128-f80:128-n8:16:32:64-S128"
target triple = "x86_64-unknown-linux-gnu"

%"class.icu_75::UnicodeString" = type { %"class.icu_75::Replaceable", %"union.icu_75::UnicodeString::StackBufferOrFields" }
%"class.icu_75::Replaceable" = type { %"class.icu_75::UObject" }
%"class.icu_75::UObject" = type { ptr }
%"union.icu_75::UnicodeString::StackBufferOrFields" = type { %struct.anon.0, [32 x i8] }
%struct.anon.0 = type { i16, i32, i32, ptr }
%"class.icu_75::CompoundTransliterator" = type { %"class.icu_75::Transliterator.base", ptr, i32, i32 }
%"class.icu_75::Transliterator.base" = type <{ %"class.icu_75::UObject", %"class.icu_75::UnicodeString", ptr, i32 }>

; Function Attrs: mustprogress uwtable
define void @_ZN6icu_7522CompoundTransliteratorC2ERKNS_13UnicodeStringER11UParseErrorR10UErrorCode(ptr noundef nonnull align 8 dereferenceable(104) %this, ptr noundef nonnull align 8 dereferenceable(64) %id, ptr noundef nonnull align 4 dereferenceable(72) %0, ptr noundef nonnull align 4 dereferenceable(4) %status) unnamed_addr #1 align 2 personality ptr @__gxx_personality_v0 {
entry:
  %this.addr = alloca ptr, align 8
  %id.addr = alloca ptr, align 8
  %.addr = alloca ptr, align 8
  %status.addr = alloca ptr, align 8
  %exn.slot = alloca ptr, align 8
  %ehselector.slot = alloca i32, align 4
  store ptr %this, ptr %this.addr, align 8
  store ptr %id, ptr %id.addr, align 8
  store ptr %0, ptr %.addr, align 8
  store ptr %status, ptr %status.addr, align 8
  %this1 = load ptr, ptr %this.addr, align 8
  %1 = load ptr, ptr %id.addr, align 8
  call void @_ZN6icu_7514TransliteratorC2ERKNS_13UnicodeStringEPNS_13UnicodeFilterE(ptr noundef nonnull align 8 dereferenceable(84) %this1, ptr noundef nonnull align 8 dereferenceable(64) %1, ptr noundef null)
  store ptr getelementptr inbounds ({ [21 x ptr] }, ptr @_ZTVN6icu_7522CompoundTransliteratorE, i32 0, i32 0, i32 2), ptr %this1, align 8
  %trans = getelementptr inbounds %"class.icu_75::CompoundTransliterator", ptr %this1, i32 0, i32 1
  store ptr null, ptr %trans, align 8
  %numAnonymousRBTs = getelementptr inbounds %"class.icu_75::CompoundTransliterator", ptr %this1, i32 0, i32 3
  store i32 0, ptr %numAnonymousRBTs, align 4
  %2 = load ptr, ptr %id.addr, align 8
  %3 = load ptr, ptr %status.addr, align 8
  invoke void @_ZN6icu_7522CompoundTransliterator4initERKNS_13UnicodeStringE15UTransDirectionaR10UErrorCode(ptr noundef nonnull align 8 dereferenceable(104) %this1, ptr noundef nonnull align 8 dereferenceable(64) %2, i32 noundef 0, i8 noundef signext 1, ptr noundef nonnull align 4 dereferenceable(4) %3)
          to label %invoke.cont unwind label %lpad

invoke.cont:                                      ; preds = %entry
  ret void

lpad:                                             ; preds = %entry
  %4 = landingpad { ptr, i32 }
          cleanup
  %5 = extractvalue { ptr, i32 } %4, 0
  store ptr %5, ptr %exn.slot, align 8
  %6 = extractvalue { ptr, i32 } %4, 1
  store i32 %6, ptr %ehselector.slot, align 4
  call void @_ZN6icu_7514TransliteratorD2Ev(ptr noundef nonnull align 8 dereferenceable(84) %this1) #6
  br label %eh.resume

eh.resume:                                        ; preds = %lpad
  %exn = load ptr, ptr %exn.slot, align 8
  %sel = load i32, ptr %ehselector.slot, align 4
  %lpad.val = insertvalue { ptr, i32 } poison, ptr %exn, 0
  %lpad.val2 = insertvalue { ptr, i32 } %lpad.val, i32 %sel, 1
  resume { ptr, i32 } %lpad.val2
}